; Function Attrs: null_pointer_is_valid sspstrong uwtable
define internal fastcc i32 @dissect_kafka_list_partition_reassignments_response(ptr noundef %0, ptr noundef %1, ptr noundef %2, i32 noundef %3, i16 noundef signext %4) unnamed_addr #0 {
  %6 = alloca ptr, align 8
  call void @llvm.lifetime.start.p0(i64 8, ptr nonnull %6) #9
  %7 = load i32, ptr @hf_kafka_throttle_time, align 4
  %8 = tail call ptr @proto_tree_add_item(ptr noundef %2, i32 noundef %7, ptr noundef %0, i32 noundef %3, i32 noundef 4, i32 noundef 0)
  %9 = add i32 %3, 4
  %10 = tail call zeroext i16 @tvb_get_ntohs(ptr noundef %0, i32 noundef %9)
  %11 = load i32, ptr @hf_kafka_error, align 4
  %12 = tail call ptr @proto_tree_add_item(ptr noundef %2, i32 noundef %11, ptr noundef %0, i32 noundef %9, i32 noundef 2, i32 noundef 0)
  %.not.i.i = icmp eq i16 %10, 0
  br i1 %.not.i.i, label %dissect_kafka_error.exit, label %13

13:                                               ; preds = %5
  %14 = getelementptr inbounds nuw i8, ptr %1, i64 8
  %15 = load ptr, ptr %14, align 8
  %16 = sext i16 %10 to i32
  %17 = tail call ptr @val_to_str(i32 noundef %16, ptr noundef nonnull @kafka_errors, ptr noundef nonnull @.str.628)
  tail call void (ptr, i32, ptr, ...) @col_append_fstr(ptr noundef %15, i32 noundef 25, ptr noundef nonnull @.str.742, ptr noundef %17)
  br label %dissect_kafka_error.exit

dissect_kafka_error.exit:                         ; preds = %5, %13
  %18 = add i32 %3, 6
  %19 = load i32, ptr @hf_kafka_error_message, align 4
  %20 = icmp sgt i16 %4, -1
  %21 = zext i1 %20 to i32
  %22 = tail call fastcc i32 @dissect_kafka_string(ptr noundef %2, i32 noundef %19, ptr noundef %0, ptr noundef %1, i32 noundef %18, i32 noundef %21, ptr noundef null, ptr noundef null)
  %23 = load i32, ptr @ett_kafka_topics, align 4
  %24 = call ptr @proto_tree_add_subtree(ptr noundef %2, ptr noundef %0, i32 noundef %22, i32 noundef -1, i32 noundef %23, ptr noundef nonnull %6, ptr noundef nonnull @.str.669)
  %25 = call fastcc i32 @dissect_kafka_array(ptr noundef %24, ptr noundef %0, ptr noundef %1, i32 noundef %22, i32 noundef %21, i16 noundef signext %4, ptr noundef nonnull @dissect_kafka_list_partition_reassignments_response_topic, ptr noundef null)
  %26 = load ptr, ptr %6, align 8
  call void @proto_item_set_end(ptr noundef %26, ptr noundef %0, i32 noundef %25)
  %27 = call fastcc i32 @dissect_kafka_tagged_fields(ptr noundef %0, ptr noundef %1, ptr noundef %2, i32 noundef %25)
  call void @llvm.lifetime.end.p0(i64 8, ptr nonnull %6) #9
  ret i32 %27
}